; Function Attrs: mustprogress uwtable
define internal void @_ZN12_GLOBAL__N_118SynthGreenPAK4Pass11clear_flagsEv(ptr noundef nonnull align 8 dereferenceable(282) %0) unnamed_addr #5 align 2 {
  %2 = getelementptr inbounds nuw i8, ptr %0, i64 184
  %3 = getelementptr inbounds nuw i8, ptr %0, i64 192
  %4 = load i64, ptr %3, align 8, !tbaa !16
  %5 = tail call noundef nonnull align 8 dereferenceable(32) ptr @_ZNSt7__cxx1112basic_stringIcSt11char_traitsIcESaIcEE10_M_replaceEmmPKcm(ptr noundef nonnull align 8 dereferenceable(32) %2, i64 noundef 0, i64 noundef %4, ptr noundef nonnull @.str.26, i64 noundef 9)
  %6 = getelementptr inbounds nuw i8, ptr %0, i64 216
  %7 = getelementptr inbounds nuw i8, ptr %0, i64 224
  %8 = load i64, ptr %7, align 8, !tbaa !16
  %9 = tail call noundef nonnull align 8 dereferenceable(32) ptr @_ZNSt7__cxx1112basic_stringIcSt11char_traitsIcESaIcEE10_M_replaceEmmPKcm(ptr noundef nonnull align 8 dereferenceable(32) %6, i64 noundef 0, i64 noundef %8, ptr noundef nonnull @.str.27, i64 noundef 9)
  %10 = getelementptr inbounds nuw i8, ptr %0, i64 248
  %11 = getelementptr inbounds nuw i8, ptr %0, i64 256
  %12 = load i64, ptr %11, align 8, !tbaa !16
  %13 = tail call noundef nonnull align 8 dereferenceable(32) ptr @_ZNSt7__cxx1112basic_stringIcSt11char_traitsIcESaIcEE10_M_replaceEmmPKcm(ptr noundef nonnull align 8 dereferenceable(32) %10, i64 noundef 0, i64 noundef %12, ptr noundef nonnull @.str.28, i64 noundef 0)
  %14 = getelementptr inbounds nuw i8, ptr %0, i64 280
  store i8 1, ptr %14, align 8, !tbaa !20
  %15 = getelementptr inbounds nuw i8, ptr %0, i64 281
  store i8 0, ptr %15, align 1, !tbaa !28
  ret void
}